target datalayout = "e-m:e-p270:32:32-p271:32:32-p272:64:64-i64:64-i128:128-f80:128-n8:16:32:64-S128"
target triple = "x86_64-pc-linux-gnu"

@.str = private unnamed_addr constant [9 x i8] c"%s/%s@%s\00", align 1
@.str.1 = private unnamed_addr constant [6 x i8] c"%s/%s\00", align 1
@.str.2 = private unnamed_addr constant [6 x i8] c"%s@%s\00", align 1

; Function Attrs: nounwind uwtable
define hidden ptr @Curl_auth_build_spn(ptr noundef %0, ptr noundef %1, ptr noundef %2) #0 {
  %4 = alloca ptr, align 8
  %5 = alloca ptr, align 8
  %6 = alloca ptr, align 8
  %7 = alloca ptr, align 8
  store ptr %0, ptr %4, align 8, !tbaa !3
  store ptr %1, ptr %5, align 8, !tbaa !3
  store ptr %2, ptr %6, align 8, !tbaa !3
  call void @llvm.lifetime.start.p0(i64 8, ptr %7) #4
  store ptr null, ptr %7, align 8, !tbaa !3
  %8 = load ptr, ptr %5, align 8, !tbaa !3
  %9 = icmp ne ptr %8, null
  br i1 %9, label %10, label %18

10:                                               ; preds = %3
  %11 = load ptr, ptr %6, align 8, !tbaa !3
  %12 = icmp ne ptr %11, null
  br i1 %12, label %13, label %18

13:                                               ; preds = %10
  %14 = load ptr, ptr %4, align 8, !tbaa !3
  %15 = load ptr, ptr %5, align 8, !tbaa !3
  %16 = load ptr, ptr %6, align 8, !tbaa !3
  %17 = call ptr (ptr, ...) @curl_maprintf(ptr noundef @.str, ptr noundef %14, ptr noundef %15, ptr noundef %16)
  store ptr %17, ptr %7, align 8, !tbaa !3
  br label %34

18:                                               ; preds = %10, %3
  %19 = load ptr, ptr %5, align 8, !tbaa !3
  %20 = icmp ne ptr %19, null
  br i1 %20, label %21, label %25

21:                                               ; preds = %18
  %22 = load ptr, ptr %4, align 8, !tbaa !3
  %23 = load ptr, ptr %5, align 8, !tbaa !3
  %24 = call ptr (ptr, ...) @curl_maprintf(ptr noundef @.str.1, ptr noundef %22, ptr noundef %23)
  store ptr %24, ptr %7, align 8, !tbaa !3
  br label %33

25:                                               ; preds = %18
  %26 = load ptr, ptr %6, align 8, !tbaa !3
  %27 = icmp ne ptr %26, null
  br i1 %27, label %28, label %32

28:                                               ; preds = %25
  %29 = load ptr, ptr %4, align 8, !tbaa !3
  %30 = load ptr, ptr %6, align 8, !tbaa !3
  %31 = call ptr (ptr, ...) @curl_maprintf(ptr noundef @.str.2, ptr noundef %29, ptr noundef %30)
  store ptr %31, ptr %7, align 8, !tbaa !3
  br label %32

32:                                               ; preds = %28, %25
  br label %33

33:                                               ; preds = %32, %21
  br label %34

34:                                               ; preds = %33, %13
  %35 = load ptr, ptr %7, align 8, !tbaa !3
  call void @llvm.lifetime.end.p0(i64 8, ptr %7) #4
  ret ptr %35
}