; Function Attrs: nounwind uwtable
define hidden ptr @Curl_auth_build_spn(ptr noundef %0, ptr noundef %1, ptr noundef %2) local_unnamed_addr #0 {
  %4 = icmp ne ptr %1, null
  %5 = icmp ne ptr %2, null
  %or.cond = and i1 %4, %5
  br i1 %or.cond, label %6, label %8

6:                                                ; preds = %3
  %7 = tail call ptr (ptr, ...) @curl_maprintf(ptr noundef nonnull @.str, ptr noundef %0, ptr noundef nonnull %1, ptr noundef nonnull %2) #4
  br label %14

8:                                                ; preds = %3
  br i1 %4, label %9, label %11

9:                                                ; preds = %8
  %10 = tail call ptr (ptr, ...) @curl_maprintf(ptr noundef nonnull @.str.1, ptr noundef %0, ptr noundef nonnull %1) #4
  br label %14

11:                                               ; preds = %8
  br i1 %5, label %12, label %14

12:                                               ; preds = %11
  %13 = tail call ptr (ptr, ...) @curl_maprintf(ptr noundef nonnull @.str.2, ptr noundef %0, ptr noundef nonnull %2) #4
  br label %14

14:                                               ; preds = %9, %12, %11, %6
  %.0 = phi ptr [ %7, %6 ], [ %10, %9 ], [ %13, %12 ], [ null, %11 ]
  ret ptr %.0
}